target datalayout = "e-m:e-p270:32:32-p271:32:32-p272:64:64-i64:64-i128:128-f80:128-n8:16:32:64-S128"
target triple = "x86_64-pc-linux-gnu"

%struct.hb_glyph_info_t = type { i32, i32, i32, %union._hb_var_int_t, %union._hb_var_int_t }
%union._hb_var_int_t = type { i32 }
%struct.hb_glyph_position_t = type { i32, i32, i32, i32, %union._hb_var_int_t }

; Function Attrs: nounwind uwtable
define hidden i64 @af_shaper_get_elem(ptr noundef %0, ptr noundef %1, i32 noundef %2, ptr noundef %3, ptr noundef %4) #0 {
  %6 = alloca i64, align 8
  %7 = alloca ptr, align 8
  %8 = alloca ptr, align 8
  %9 = alloca i32, align 4
  %10 = alloca ptr, align 8
  %11 = alloca ptr, align 8
  %12 = alloca ptr, align 8
  %13 = alloca ptr, align 8
  %14 = alloca ptr, align 8
  %15 = alloca i32, align 4
  %16 = alloca i32, align 4
  store ptr %0, ptr %7, align 8, !tbaa !3
  store ptr %1, ptr %8, align 8, !tbaa !153
  store i32 %2, ptr %9, align 4, !tbaa !43
  store ptr %3, ptr %10, align 8, !tbaa !44
  store ptr %4, ptr %11, align 8, !tbaa !44
  call void @llvm.lifetime.start.p0(i64 8, ptr %12) #10
  %17 = load ptr, ptr %8, align 8, !tbaa !153
  store ptr %17, ptr %12, align 8, !tbaa !154
  call void @llvm.lifetime.start.p0(i64 8, ptr %13) #10
  call void @llvm.lifetime.start.p0(i64 8, ptr %14) #10
  call void @llvm.lifetime.start.p0(i64 4, ptr %15) #10
  %18 = load ptr, ptr %7, align 8, !tbaa !3
  store ptr %18, ptr %7, align 8, !tbaa !3
  %19 = load ptr, ptr %12, align 8, !tbaa !154
  %20 = call ptr @hb_buffer_get_glyph_infos(ptr noundef %19, ptr noundef %15)
  store ptr %20, ptr %13, align 8, !tbaa !164
  %21 = load ptr, ptr %12, align 8, !tbaa !154
  %22 = call ptr @hb_buffer_get_glyph_positions(ptr noundef %21, ptr noundef %15)
  store ptr %22, ptr %14, align 8, !tbaa !169
  %23 = load i32, ptr %9, align 4, !tbaa !43
  %24 = load i32, ptr %15, align 4, !tbaa !43
  %25 = icmp uge i32 %23, %24
  br i1 %25, label %26, label %27

26:                                               ; preds = %5
  store i64 0, ptr %6, align 8
  store i32 1, ptr %16, align 4
  br label %59

27:                                               ; preds = %5
  %28 = load ptr, ptr %10, align 8, !tbaa !44
  %29 = icmp ne ptr %28, null
  br i1 %29, label %30, label %39

30:                                               ; preds = %27
  %31 = load ptr, ptr %14, align 8, !tbaa !169
  %32 = load i32, ptr %9, align 4, !tbaa !43
  %33 = zext i32 %32 to i64
  %34 = getelementptr inbounds nuw %struct.hb_glyph_position_t, ptr %31, i64 %33
  %35 = getelementptr inbounds nuw %struct.hb_glyph_position_t, ptr %34, i32 0, i32 0
  %36 = load i32, ptr %35, align 4, !tbaa !171
  %37 = sext i32 %36 to i64
  %38 = load ptr, ptr %10, align 8, !tbaa !44
  store i64 %37, ptr %38, align 8, !tbaa !42
  br label %39

39:                                               ; preds = %30, %27
  %40 = load ptr, ptr %11, align 8, !tbaa !44
  %41 = icmp ne ptr %40, null
  br i1 %41, label %42, label %51

42:                                               ; preds = %39
  %43 = load ptr, ptr %14, align 8, !tbaa !169
  %44 = load i32, ptr %9, align 4, !tbaa !43
  %45 = zext i32 %44 to i64
  %46 = getelementptr inbounds nuw %struct.hb_glyph_position_t, ptr %43, i64 %45
  %47 = getelementptr inbounds nuw %struct.hb_glyph_position_t, ptr %46, i32 0, i32 3
  %48 = load i32, ptr %47, align 4, !tbaa !173
  %49 = sext i32 %48 to i64
  %50 = load ptr, ptr %11, align 8, !tbaa !44
  store i64 %49, ptr %50, align 8, !tbaa !42
  br label %51

51:                                               ; preds = %42, %39
  %52 = load ptr, ptr %13, align 8, !tbaa !164
  %53 = load i32, ptr %9, align 4, !tbaa !43
  %54 = zext i32 %53 to i64
  %55 = getelementptr inbounds nuw %struct.hb_glyph_info_t, ptr %52, i64 %54
  %56 = getelementptr inbounds nuw %struct.hb_glyph_info_t, ptr %55, i32 0, i32 0
  %57 = load i32, ptr %56, align 4, !tbaa !166
  %58 = zext i32 %57 to i64
  store i64 %58, ptr %6, align 8
  store i32 1, ptr %16, align 4
  br label %59

59:                                               ; preds = %51, %26
  call void @llvm.lifetime.end.p0(i64 4, ptr %15) #10
  call void @llvm.lifetime.end.p0(i64 8, ptr %14) #10
  call void @llvm.lifetime.end.p0(i64 8, ptr %13) #10
  call void @llvm.lifetime.end.p0(i64 8, ptr %12) #10
  %60 = load i64, ptr %6, align 8
  ret i64 %60
}