; Function Attrs: nounwind uwtable
define hidden range(i64 0, 4294967296) i64 @af_shaper_get_elem(ptr noundef readnone captures(none) %0, ptr noundef %1, i32 noundef %2, ptr noundef writeonly %3, ptr noundef writeonly %4) local_unnamed_addr #0 {
  %6 = alloca i32, align 4
  call void @llvm.lifetime.start.p0(i64 4, ptr nonnull %6) #20
  %7 = call ptr @hb_buffer_get_glyph_infos(ptr noundef %1, ptr noundef nonnull %6) #20
  %8 = call ptr @hb_buffer_get_glyph_positions(ptr noundef %1, ptr noundef nonnull %6) #20
  %9 = load i32, ptr %6, align 4, !tbaa !43
  %.not = icmp ult i32 %2, %9
  br i1 %.not, label %10, label %24

10:                                               ; preds = %5
  %.not18 = icmp eq ptr %3, null
  br i1 %.not18, label %16, label %11

11:                                               ; preds = %10
  %12 = zext i32 %2 to i64
  %13 = getelementptr inbounds nuw %struct.hb_glyph_position_t, ptr %8, i64 %12
  %14 = load i32, ptr %13, align 4, !tbaa !191
  %15 = sext i32 %14 to i64
  store i64 %15, ptr %3, align 8, !tbaa !60
  br label %16

16:                                               ; preds = %11, %10
  %.not19 = icmp eq ptr %4, null
  %.pre = zext i32 %2 to i64
  br i1 %.not19, label %._crit_edge, label %17

17:                                               ; preds = %16
  %18 = getelementptr inbounds nuw %struct.hb_glyph_position_t, ptr %8, i64 %.pre, i32 3
  %19 = load i32, ptr %18, align 4, !tbaa !157
  %20 = sext i32 %19 to i64
  store i64 %20, ptr %4, align 8, !tbaa !60
  br label %._crit_edge

._crit_edge:                                      ; preds = %16, %17
  %21 = getelementptr inbounds nuw %struct.hb_glyph_info_t, ptr %7, i64 %.pre
  %22 = load i32, ptr %21, align 4, !tbaa !44
  %23 = zext i32 %22 to i64
  br label %24

24:                                               ; preds = %5, %._crit_edge
  %.0 = phi i64 [ %23, %._crit_edge ], [ 0, %5 ]
  call void @llvm.lifetime.end.p0(i64 4, ptr nonnull %6) #20
  ret i64 %.0
}